target datalayout = "e-m:e-p270:32:32-p271:32:32-p272:64:64-i64:64-i128:128-f80:128-n8:16:32:64-S128"
target triple = "x86_64-pc-linux-gnu"

%struct.psa_hash_operation_s = type { i32, %union.psa_driver_hash_context_t }
%union.psa_driver_hash_context_t = type { %struct.mbedtls_psa_hash_operation_t }
%struct.mbedtls_psa_hash_operation_t = type { i32, %union.anon.1 }
%union.anon.1 = type { %struct.mbedtls_sha512_context }
%struct.mbedtls_sha512_context = type { [2 x i64], [8 x i64], [128 x i8], i32 }
%struct.psa_mac_operation_s = type { i32, i8, i8, %union.psa_driver_mac_context_t }
%union.psa_driver_mac_context_t = type { %struct.mbedtls_psa_mac_operation_t }
%struct.mbedtls_psa_mac_operation_t = type { i32, %union.anon.2 }
%union.anon.2 = type { %struct.mbedtls_psa_hmac_operation_t }
%struct.mbedtls_psa_hmac_operation_t = type { i32, %struct.psa_hash_operation_s, [144 x i8] }
%struct.psa_key_derivation_s = type { i32, i8, i64, %union.psa_driver_key_derivation_context_t }
%union.psa_driver_key_derivation_context_t = type { %struct.psa_hkdf_key_derivation_t }
%struct.psa_hkdf_key_derivation_t = type { ptr, i64, i8, i8, i8, [64 x i8], [64 x i8], %struct.psa_mac_operation_s }

; Function Attrs: nounwind uwtable
define internal i32 @psa_key_derivation_allows_free_form_secret_input(i32 noundef %0) #0 {
  %2 = alloca i32, align 4
  %3 = alloca i32, align 4
  store i32 %0, ptr %3, align 4, !tbaa !3
  %4 = load i32, ptr %3, align 4, !tbaa !3
  %5 = icmp eq i32 %4, 134219273
  br i1 %5, label %6, label %7

6:                                                ; preds = %1
  store i32 0, ptr %2, align 4
  br label %8

7:                                                ; preds = %1
  store i32 1, ptr %2, align 4
  br label %8

8:                                                ; preds = %7, %6
  %9 = load i32, ptr %2, align 4
  ret i32 %9
}

; Function Attrs: nounwind uwtable
define internal i32 @psa_key_agreement_try_support(i32 noundef %0) #0 {
  %2 = alloca i32, align 4
  %3 = alloca i32, align 4
  store i32 %0, ptr %3, align 4, !tbaa !3
  %4 = load i32, ptr %3, align 4, !tbaa !3
  %5 = icmp eq i32 %4, 151126016
  br i1 %5, label %6, label %7

6:                                                ; preds = %1
  store i32 0, ptr %2, align 4
  br label %12

7:                                                ; preds = %1
  %8 = load i32, ptr %3, align 4, !tbaa !3
  %9 = icmp eq i32 %8, 151060480
  br i1 %9, label %10, label %11

10:                                               ; preds = %7
  store i32 0, ptr %2, align 4
  br label %12

11:                                               ; preds = %7
  store i32 -134, ptr %2, align 4
  br label %12

12:                                               ; preds = %11, %10, %6
  %13 = load i32, ptr %2, align 4
  ret i32 %13
}

; Function Attrs: nounwind uwtable
define hidden i32 @psa_key_derivation_setup(ptr noundef %0, i32 noundef %1) #0 {
  %3 = alloca i32, align 4
  %4 = alloca ptr, align 8
  %5 = alloca i32, align 4
  %6 = alloca i32, align 4
  %7 = alloca i32, align 4
  %8 = alloca i32, align 4
  %9 = alloca i32, align 4
  store ptr %0, ptr %4, align 8, !tbaa !105
  store i32 %1, ptr %5, align 4, !tbaa !3
  call void @llvm.lifetime.start.p0(i64 4, ptr %6) #8
  %10 = load ptr, ptr %4, align 8, !tbaa !105
  %11 = getelementptr inbounds nuw %struct.psa_key_derivation_s, ptr %10, i32 0, i32 0
  %12 = load i32, ptr %11, align 8, !tbaa !107
  %13 = icmp ne i32 %12, 0
  br i1 %13, label %14, label %15

14:                                               ; preds = %2
  store i32 -137, ptr %3, align 4
  store i32 1, ptr %7, align 4
  br label %74

15:                                               ; preds = %2
  %16 = load i32, ptr %5, align 4, !tbaa !3
  %17 = and i32 %16, 2130706432
  %18 = icmp eq i32 %17, 150994944
  br i1 %18, label %19, label %25

19:                                               ; preds = %15
  %20 = load i32, ptr %5, align 4, !tbaa !3
  %21 = and i32 %20, -33488897
  %22 = or i32 %21, 134217728
  %23 = icmp eq i32 %22, 134217728
  br i1 %23, label %24, label %25

24:                                               ; preds = %19
  store i32 -135, ptr %3, align 4
  store i32 1, ptr %7, align 4
  br label %74

25:                                               ; preds = %19, %15
  %26 = load i32, ptr %5, align 4, !tbaa !3
  %27 = and i32 %26, 2130706432
  %28 = icmp eq i32 %27, 150994944
  br i1 %28, label %29, label %54

29:                                               ; preds = %25
  call void @llvm.lifetime.start.p0(i64 4, ptr %8) #8
  %30 = load i32, ptr %5, align 4, !tbaa !3
  %31 = and i32 %30, -33488897
  %32 = or i32 %31, 134217728
  store i32 %32, ptr %8, align 4, !tbaa !3
  call void @llvm.lifetime.start.p0(i64 4, ptr %9) #8
  %33 = load i32, ptr %5, align 4, !tbaa !3
  %34 = and i32 %33, -65536
  %35 = or i32 %34, 150994944
  store i32 %35, ptr %9, align 4, !tbaa !3
  %36 = load i32, ptr %9, align 4, !tbaa !3
  %37 = call i32 @psa_key_agreement_try_support(i32 noundef %36)
  store i32 %37, ptr %6, align 4, !tbaa !3
  %38 = load i32, ptr %6, align 4, !tbaa !3
  %39 = icmp ne i32 %38, 0
  br i1 %39, label %40, label %42

40:                                               ; preds = %29
  %41 = load i32, ptr %6, align 4, !tbaa !3
  store i32 %41, ptr %3, align 4
  store i32 1, ptr %7, align 4
  br label %51

42:                                               ; preds = %29
  %43 = load i32, ptr %8, align 4, !tbaa !3
  %44 = call i32 @psa_key_derivation_allows_free_form_secret_input(i32 noundef %43)
  %45 = icmp ne i32 %44, 0
  br i1 %45, label %47, label %46

46:                                               ; preds = %42
  store i32 -135, ptr %3, align 4
  store i32 1, ptr %7, align 4
  br label %51

47:                                               ; preds = %42
  %48 = load ptr, ptr %4, align 8, !tbaa !105
  %49 = load i32, ptr %8, align 4, !tbaa !3
  %50 = call i32 @psa_key_derivation_setup_kdf(ptr noundef %48, i32 noundef %49)
  store i32 %50, ptr %6, align 4, !tbaa !3
  store i32 0, ptr %7, align 4
  br label %51

51:                                               ; preds = %47, %46, %40
  call void @llvm.lifetime.end.p0(i64 4, ptr %9) #8
  call void @llvm.lifetime.end.p0(i64 4, ptr %8) #8
  %52 = load i32, ptr %7, align 4
  switch i32 %52, label %74 [
    i32 0, label %53
  ]

53:                                               ; preds = %51
  br label %64

54:                                               ; preds = %25
  %55 = load i32, ptr %5, align 4, !tbaa !3
  %56 = and i32 %55, 2130706432
  %57 = icmp eq i32 %56, 134217728
  br i1 %57, label %58, label %62

58:                                               ; preds = %54
  %59 = load ptr, ptr %4, align 8, !tbaa !105
  %60 = load i32, ptr %5, align 4, !tbaa !3
  %61 = call i32 @psa_key_derivation_setup_kdf(ptr noundef %59, i32 noundef %60)
  store i32 %61, ptr %6, align 4, !tbaa !3
  br label %63

62:                                               ; preds = %54
  store i32 -135, ptr %3, align 4
  store i32 1, ptr %7, align 4
  br label %74

63:                                               ; preds = %58
  br label %64

64:                                               ; preds = %63, %53
  br label %65

65:                                               ; preds = %64
  %66 = load i32, ptr %6, align 4, !tbaa !3
  %67 = icmp eq i32 %66, 0
  br i1 %67, label %68, label %72

68:                                               ; preds = %65
  %69 = load i32, ptr %5, align 4, !tbaa !3
  %70 = load ptr, ptr %4, align 8, !tbaa !105
  %71 = getelementptr inbounds nuw %struct.psa_key_derivation_s, ptr %70, i32 0, i32 0
  store i32 %69, ptr %71, align 8, !tbaa !107
  br label %72

72:                                               ; preds = %68, %65
  %73 = load i32, ptr %6, align 4, !tbaa !3
  store i32 %73, ptr %3, align 4
  store i32 1, ptr %7, align 4
  br label %74

74:                                               ; preds = %72, %62, %51, %24, %14
  call void @llvm.lifetime.end.p0(i64 4, ptr %6) #8
  %75 = load i32, ptr %3, align 4
  ret i32 %75
}