; Function Attrs: nounwind uwtable
define hidden i32 @psa_key_derivation_setup(ptr noundef captures(none) %0, i32 noundef %1) local_unnamed_addr #7 {
  %3 = load i32, ptr %0, align 8, !tbaa !74
  %.not = icmp eq i32 %3, 0
  br i1 %.not, label %4, label %.thread

4:                                                ; preds = %2
  %5 = and i32 %1, -2013200385
  %6 = and i32 %1, -16711681
  %or.cond = icmp eq i32 %6, 150994944
  br i1 %or.cond, label %.thread, label %7

7:                                                ; preds = %4
  %8 = and i32 %1, 2130706432
  switch i32 %8, label %.thread [
    i32 150994944, label %9
    i32 134217728, label %12
  ]

9:                                                ; preds = %7
  %10 = add i32 %1, -151060480
  %switch.selectcmp.i = icmp ult i32 %10, 131072
  br i1 %switch.selectcmp.i, label %11, label %.thread

11:                                               ; preds = %9
  %.not32 = icmp eq i32 %5, 134219273
  br i1 %.not32, label %.thread, label %12

12:                                               ; preds = %7, %11
  %.sink = phi i32 [ %5, %11 ], [ %1, %7 ]
  %13 = tail call fastcc i32 @psa_key_derivation_setup_kdf(ptr noundef nonnull %0, i32 noundef %.sink)
  %14 = icmp eq i32 %13, 0
  br i1 %14, label %15, label %.thread

15:                                               ; preds = %12
  store i32 %1, ptr %0, align 8, !tbaa !74
  br label %.thread

.thread:                                          ; preds = %7, %11, %9, %12, %15, %4, %2
  %.0 = phi i32 [ -137, %2 ], [ -135, %4 ], [ 0, %15 ], [ %13, %12 ], [ -135, %11 ], [ -134, %9 ], [ -135, %7 ]
  ret i32 %.0
}